; Function Attrs: nounwind uwtable
define ptr @l___private_Std_Sync_Channel_0__Std_CloseableChannel_Bounded_incMod(ptr noundef %0, ptr noundef %1) local_unnamed_addr #1 {
  %3 = ptrtoint ptr %0 to i64
  %4 = and i64 %3, 1
  %.not = icmp eq i64 %4, 0
  br i1 %.not, label %.critedge.i10, label %5, !prof !15

5:                                                ; preds = %2
  %6 = lshr i64 %3, 1
  %7 = add nuw i64 %6, 1
  %8 = icmp sgt i64 %7, -1
  br i1 %8, label %9, label %13, !prof !9

9:                                                ; preds = %5
  %10 = shl nuw i64 %7, 1
  %11 = or disjoint i64 %10, 1
  %12 = inttoptr i64 %11 to ptr
  br label %lean_nat_add.exit12

13:                                               ; preds = %5
  %14 = tail call ptr @lean_big_usize_to_nat(i64 noundef range(i64 0, -1) %7) #7
  br label %lean_nat_add.exit12

.critedge.i10:                                    ; preds = %2
  %15 = tail call ptr @lean_nat_big_add(ptr noundef %0, ptr noundef nonnull inttoptr (i64 3 to ptr)) #7
  br label %lean_nat_add.exit12

lean_nat_add.exit12:                              ; preds = %13, %9, %.critedge.i10
  %.0.i11 = phi ptr [ %15, %.critedge.i10 ], [ %12, %9 ], [ %14, %13 ]
  %16 = ptrtoint ptr %.0.i11 to i64
  %17 = and i64 %16, 1
  %.not20 = icmp eq i64 %17, 0
  br i1 %.not20, label %23, label %18, !prof !15

18:                                               ; preds = %lean_nat_add.exit12
  %19 = ptrtoint ptr %1 to i64
  %20 = and i64 %19, 1
  %.not21 = icmp eq i64 %20, 0
  br i1 %.not21, label %lean_nat_eq.exit.thread19, label %lean_nat_eq.exit.thread, !prof !15

lean_nat_eq.exit.thread19:                        ; preds = %18
  %21 = tail call zeroext i1 @lean_nat_big_eq(ptr noundef %.0.i11, ptr noundef %1) #7
  br i1 %21, label %lean_nat_add.exit, label %31

lean_nat_eq.exit.thread:                          ; preds = %18
  %22 = icmp eq ptr %.0.i11, %1
  br i1 %22, label %lean_nat_add.exit, label %31

23:                                               ; preds = %lean_nat_add.exit12
  %24 = tail call zeroext i1 @lean_nat_big_eq(ptr noundef %.0.i11, ptr noundef %1) #7
  %25 = load i32, ptr %.0.i11, align 4, !tbaa !4
  %26 = icmp sgt i32 %25, 1
  br i1 %26, label %27, label %29, !prof !9

27:                                               ; preds = %23
  %28 = add nsw i32 %25, -1
  store i32 %28, ptr %.0.i11, align 4, !tbaa !4
  br i1 %24, label %lean_nat_add.exit, label %31

29:                                               ; preds = %23
  %.not.i = icmp eq i32 %25, 0
  br i1 %.not.i, label %lean_dec.exit, label %30

30:                                               ; preds = %29
  tail call void @lean_dec_ref_cold(ptr noundef nonnull %.0.i11) #7
  br i1 %24, label %lean_nat_add.exit, label %31

lean_dec.exit:                                    ; preds = %29
  br i1 %24, label %lean_nat_add.exit, label %31

31:                                               ; preds = %30, %27, %lean_nat_eq.exit.thread19, %lean_nat_eq.exit.thread, %lean_dec.exit
  br i1 %.not, label %.critedge.i, label %32, !prof !15

32:                                               ; preds = %31
  %33 = lshr i64 %3, 1
  %34 = add nuw i64 %33, 1
  %35 = icmp sgt i64 %34, -1
  br i1 %35, label %36, label %40, !prof !9

36:                                               ; preds = %32
  %37 = shl nuw i64 %34, 1
  %38 = or disjoint i64 %37, 1
  %39 = inttoptr i64 %38 to ptr
  br label %lean_nat_add.exit

40:                                               ; preds = %32
  %41 = tail call ptr @lean_big_usize_to_nat(i64 noundef range(i64 0, -1) %34) #7
  br label %lean_nat_add.exit

.critedge.i:                                      ; preds = %31
  %42 = tail call ptr @lean_nat_big_add(ptr noundef %0, ptr noundef nonnull inttoptr (i64 3 to ptr)) #7
  br label %lean_nat_add.exit

lean_nat_add.exit:                                ; preds = %30, %27, %lean_nat_eq.exit.thread19, %lean_nat_eq.exit.thread, %lean_dec.exit, %.critedge.i, %36, %40
  %.0 = phi ptr [ %42, %.critedge.i ], [ %39, %36 ], [ %41, %40 ], [ inttoptr (i64 1 to ptr), %lean_dec.exit ], [ inttoptr (i64 1 to ptr), %lean_nat_eq.exit.thread ], [ inttoptr (i64 1 to ptr), %lean_nat_eq.exit.thread19 ], [ inttoptr (i64 1 to ptr), %27 ], [ inttoptr (i64 1 to ptr), %30 ]
  ret ptr %.0
}